target datalayout = "e-m:e-p270:32:32-p271:32:32-p272:64:64-i64:64-i128:128-f80:128-n8:16:32:64-S128"
target triple = "x86_64-pc-linux-gnu"

%struct.ident_t = type { i32, i32, i32, i32, ptr }
%"class.ncnn::Mat" = type { ptr, ptr, i64, i32, ptr, i32, i32, i32, i32, i32, i64 }
%"class.ncnn::Option" = type { i8, i32, ptr, ptr, i32, i8, i8, i8, i8, i8, i8, i8, i8, i8, i8, i8, i8, i8, i8, i8, i8, i8, i8, i8, i8, i32, i8, i8, i8, i8, i8, i8, i8, i8, i8, i8, i8, i8 }

@2 = private unnamed_addr constant %struct.ident_t { i32 0, i32 2, i32 0, i32 22, ptr @0 }, align 8

; Function Attrs: mustprogress nounwind uwtable
define hidden noundef i32 @_ZNK4ncnn12Mish_x86_fma15forward_inplaceERNS_3MatERKNS_6OptionE(ptr noundef nonnull align 8 dereferenceable(208) %0, ptr noundef nonnull align 8 dereferenceable(72) %1, ptr noundef nonnull align 8 dereferenceable(64) %2) unnamed_addr #3 align 2 {
  %4 = alloca ptr, align 8
  %5 = alloca ptr, align 8
  %6 = alloca ptr, align 8
  %7 = alloca i32, align 4
  %8 = alloca i32, align 4
  %9 = alloca i32, align 4
  %10 = alloca i32, align 4
  %11 = alloca i32, align 4
  %12 = alloca i32, align 4
  %13 = call i32 @__kmpc_global_thread_num(ptr @2)
  store ptr %0, ptr %4, align 8, !tbaa !4
  store ptr %1, ptr %5, align 8, !tbaa !9
  store ptr %2, ptr %6, align 8, !tbaa !11
  call void @llvm.lifetime.start.p0(i64 4, ptr %7) #7
  %14 = load ptr, ptr %5, align 8, !tbaa !9
  %15 = getelementptr inbounds nuw %"class.ncnn::Mat", ptr %14, i32 0, i32 6
  %16 = load i32, ptr %15, align 4, !tbaa !13
  store i32 %16, ptr %7, align 4, !tbaa !19
  call void @llvm.lifetime.start.p0(i64 4, ptr %8) #7
  %17 = load ptr, ptr %5, align 8, !tbaa !9
  %18 = getelementptr inbounds nuw %"class.ncnn::Mat", ptr %17, i32 0, i32 7
  %19 = load i32, ptr %18, align 8, !tbaa !20
  store i32 %19, ptr %8, align 4, !tbaa !19
  call void @llvm.lifetime.start.p0(i64 4, ptr %9) #7
  %20 = load ptr, ptr %5, align 8, !tbaa !9
  %21 = getelementptr inbounds nuw %"class.ncnn::Mat", ptr %20, i32 0, i32 8
  %22 = load i32, ptr %21, align 4, !tbaa !21
  store i32 %22, ptr %9, align 4, !tbaa !19
  call void @llvm.lifetime.start.p0(i64 4, ptr %10) #7
  %23 = load ptr, ptr %5, align 8, !tbaa !9
  %24 = getelementptr inbounds nuw %"class.ncnn::Mat", ptr %23, i32 0, i32 9
  %25 = load i32, ptr %24, align 8, !tbaa !22
  store i32 %25, ptr %10, align 4, !tbaa !19
  call void @llvm.lifetime.start.p0(i64 4, ptr %11) #7
  %26 = load ptr, ptr %5, align 8, !tbaa !9
  %27 = getelementptr inbounds nuw %"class.ncnn::Mat", ptr %26, i32 0, i32 3
  %28 = load i32, ptr %27, align 8, !tbaa !23
  store i32 %28, ptr %11, align 4, !tbaa !19
  call void @llvm.lifetime.start.p0(i64 4, ptr %12) #7
  %29 = load i32, ptr %7, align 4, !tbaa !19
  %30 = load i32, ptr %8, align 4, !tbaa !19
  %31 = mul nsw i32 %29, %30
  %32 = load i32, ptr %9, align 4, !tbaa !19
  %33 = mul nsw i32 %31, %32
  %34 = load i32, ptr %11, align 4, !tbaa !19
  %35 = mul nsw i32 %33, %34
  store i32 %35, ptr %12, align 4, !tbaa !19
  %36 = load ptr, ptr %6, align 8, !tbaa !11
  %37 = getelementptr inbounds nuw %"class.ncnn::Option", ptr %36, i32 0, i32 1
  %38 = load i32, ptr %37, align 4, !tbaa !24
  call void @__kmpc_push_num_threads(ptr @2, i32 %13, i32 %38)
  %39 = load ptr, ptr %5, align 8, !tbaa !9
  call void (ptr, i32, ptr, ...) @__kmpc_fork_call(ptr @2, i32 3, ptr @_ZNK4ncnn12Mish_x86_fma15forward_inplaceERNS_3MatERKNS_6OptionE.omp_outlined, ptr %10, ptr %39, ptr %12)
  call void @llvm.lifetime.end.p0(i64 4, ptr %12) #7
  call void @llvm.lifetime.end.p0(i64 4, ptr %11) #7
  call void @llvm.lifetime.end.p0(i64 4, ptr %10) #7
  call void @llvm.lifetime.end.p0(i64 4, ptr %9) #7
  call void @llvm.lifetime.end.p0(i64 4, ptr %8) #7
  call void @llvm.lifetime.end.p0(i64 4, ptr %7) #7
  ret i32 0
}